; Function Attrs: mustprogress uwtable
define dso_local noundef zeroext i1 @_Z13cmFindPackageRKSt6vectorINSt7__cxx1112basic_stringIcSt11char_traitsIcESaIcEEESaIS5_EER17cmExecutionStatus(ptr nocapture noundef nonnull readonly align 8 dereferenceable(24) %0, ptr noundef nonnull align 1 %1) local_unnamed_addr #3 personality ptr @__gxx_personality_v0 {
  %3 = alloca %class.cmFindPackageCommand, align 8
  call void @_ZN20cmFindPackageCommandC2ER17cmExecutionStatus(ptr noundef nonnull align 8 dereferenceable(1104) %3, ptr noundef nonnull align 1 %1)
  %4 = invoke noundef zeroext i1 @_ZN20cmFindPackageCommand11InitialPassERKSt6vectorINSt7__cxx1112basic_stringIcSt11char_traitsIcESaIcEEESaIS6_EE(ptr noundef nonnull align 8 dereferenceable(1104) %3, ptr noundef nonnull align 8 dereferenceable(24) %0)
          to label %5 unwind label %6

5:                                                ; preds = %2
  call void @_ZN20cmFindPackageCommandD2Ev(ptr noundef nonnull align 8 dereferenceable(1104) %3) #23
  ret i1 %4

6:                                                ; preds = %2
  %7 = landingpad { ptr, i32 }
          cleanup
  call void @_ZN20cmFindPackageCommandD2Ev(ptr noundef nonnull align 8 dereferenceable(1104) %3) #23
  resume { ptr, i32 } %7
}